target datalayout = "e-m:e-p270:32:32-p271:32:32-p272:64:64-i64:64-i128:128-f80:128-n8:16:32:64-S128"
target triple = "x86_64-pc-linux-gnu"

%struct.Kit_Edge_t_ = type { i32 }

; Function Attrs: nounwind uwtable
define i32 @Kit_SopFactorTrivial_rec(ptr noundef %0, ptr noundef %1, i32 noundef %2, i32 noundef %3) #0 {
  %5 = alloca %struct.Kit_Edge_t_, align 4
  %6 = alloca ptr, align 8
  %7 = alloca ptr, align 8
  %8 = alloca i32, align 4
  %9 = alloca i32, align 4
  %10 = alloca %struct.Kit_Edge_t_, align 4
  %11 = alloca %struct.Kit_Edge_t_, align 4
  %12 = alloca i32, align 4
  %13 = alloca i32, align 4
  %14 = alloca i32, align 4
  %15 = alloca %struct.Kit_Edge_t_, align 4
  %16 = alloca %struct.Kit_Edge_t_, align 4
  store ptr %0, ptr %6, align 8, !tbaa !12
  store ptr %1, ptr %7, align 8, !tbaa !24
  store i32 %2, ptr %8, align 4, !tbaa !8
  store i32 %3, ptr %9, align 4, !tbaa !8
  call void @llvm.lifetime.start.p0(i64 4, ptr %10) #8
  call void @llvm.lifetime.start.p0(i64 4, ptr %11) #8
  call void @llvm.lifetime.start.p0(i64 4, ptr %12) #8
  call void @llvm.lifetime.start.p0(i64 4, ptr %13) #8
  %17 = load i32, ptr %8, align 4, !tbaa !8
  %18 = icmp eq i32 %17, 1
  br i1 %18, label %19, label %27

19:                                               ; preds = %4
  %20 = load ptr, ptr %6, align 8, !tbaa !12
  %21 = load ptr, ptr %7, align 8, !tbaa !24
  %22 = getelementptr inbounds i32, ptr %21, i64 0
  %23 = load i32, ptr %22, align 4, !tbaa !8
  %24 = load i32, ptr %9, align 4, !tbaa !8
  %25 = call i32 @Kit_SopFactorTrivialCube_rec(ptr noundef %20, i32 noundef %23, i32 noundef 0, i32 noundef %24)
  %26 = getelementptr inbounds nuw %struct.Kit_Edge_t_, ptr %5, i32 0, i32 0
  store i32 %25, ptr %26, align 4
  store i32 1, ptr %14, align 4
  br label %55

27:                                               ; preds = %4
  %28 = load i32, ptr %8, align 4, !tbaa !8
  %29 = sdiv i32 %28, 2
  store i32 %29, ptr %12, align 4, !tbaa !8
  %30 = load i32, ptr %8, align 4, !tbaa !8
  %31 = load i32, ptr %12, align 4, !tbaa !8
  %32 = sub nsw i32 %30, %31
  store i32 %32, ptr %13, align 4, !tbaa !8
  call void @llvm.lifetime.start.p0(i64 4, ptr %15) #8
  %33 = load ptr, ptr %6, align 8, !tbaa !12
  %34 = load ptr, ptr %7, align 8, !tbaa !24
  %35 = load i32, ptr %12, align 4, !tbaa !8
  %36 = load i32, ptr %9, align 4, !tbaa !8
  %37 = call i32 @Kit_SopFactorTrivial_rec(ptr noundef %33, ptr noundef %34, i32 noundef %35, i32 noundef %36)
  %38 = getelementptr inbounds nuw %struct.Kit_Edge_t_, ptr %15, i32 0, i32 0
  store i32 %37, ptr %38, align 4
  call void @llvm.memcpy.p0.p0.i64(ptr align 4 %10, ptr align 4 %15, i64 4, i1 false), !tbaa.struct !14
  call void @llvm.lifetime.end.p0(i64 4, ptr %15) #8
  call void @llvm.lifetime.start.p0(i64 4, ptr %16) #8
  %39 = load ptr, ptr %6, align 8, !tbaa !12
  %40 = load ptr, ptr %7, align 8, !tbaa !24
  %41 = load i32, ptr %12, align 4, !tbaa !8
  %42 = sext i32 %41 to i64
  %43 = getelementptr inbounds i32, ptr %40, i64 %42
  %44 = load i32, ptr %13, align 4, !tbaa !8
  %45 = load i32, ptr %9, align 4, !tbaa !8
  %46 = call i32 @Kit_SopFactorTrivial_rec(ptr noundef %39, ptr noundef %43, i32 noundef %44, i32 noundef %45)
  %47 = getelementptr inbounds nuw %struct.Kit_Edge_t_, ptr %16, i32 0, i32 0
  store i32 %46, ptr %47, align 4
  call void @llvm.memcpy.p0.p0.i64(ptr align 4 %11, ptr align 4 %16, i64 4, i1 false), !tbaa.struct !14
  call void @llvm.lifetime.end.p0(i64 4, ptr %16) #8
  %48 = load ptr, ptr %6, align 8, !tbaa !12
  %49 = getelementptr inbounds nuw %struct.Kit_Edge_t_, ptr %10, i32 0, i32 0
  %50 = load i32, ptr %49, align 4
  %51 = getelementptr inbounds nuw %struct.Kit_Edge_t_, ptr %11, i32 0, i32 0
  %52 = load i32, ptr %51, align 4
  %53 = call i32 @Kit_GraphAddNodeOr(ptr noundef %48, i32 %50, i32 %52)
  %54 = getelementptr inbounds nuw %struct.Kit_Edge_t_, ptr %5, i32 0, i32 0
  store i32 %53, ptr %54, align 4
  store i32 1, ptr %14, align 4
  br label %55

55:                                               ; preds = %27, %19
  call void @llvm.lifetime.end.p0(i64 4, ptr %13) #8
  call void @llvm.lifetime.end.p0(i64 4, ptr %12) #8
  call void @llvm.lifetime.end.p0(i64 4, ptr %11) #8
  call void @llvm.lifetime.end.p0(i64 4, ptr %10) #8
  %56 = getelementptr inbounds nuw %struct.Kit_Edge_t_, ptr %5, i32 0, i32 0
  %57 = load i32, ptr %56, align 4
  ret i32 %57
}