; Function Attrs: nounwind uwtable
define i32 @Kit_SopFactorTrivial_rec(ptr noundef %0, ptr noundef %1, i32 noundef %2, i32 noundef %3) local_unnamed_addr #0 {
  %5 = icmp eq i32 %2, 1
  br i1 %5, label %common.ret, label %8

common.ret:                                       ; preds = %4
  %6 = load i32, ptr %1, align 4, !tbaa !11
  %7 = tail call i32 @Kit_SopFactorTrivialCube_rec(ptr noundef %0, i32 noundef %6, i32 noundef 0, i32 noundef %3)
  br label %common.ret20

common.ret20:                                     ; preds = %8, %common.ret
  %common.ret20.op = phi i32 [ %7, %common.ret ], [ %15, %8 ]
  ret i32 %common.ret20.op

8:                                                ; preds = %4
  %9 = sdiv i32 %2, 2
  %10 = sub nsw i32 %2, %9
  %11 = tail call i32 @Kit_SopFactorTrivial_rec(ptr noundef %0, ptr noundef %1, i32 noundef %9, i32 noundef %3)
  %12 = sext i32 %9 to i64
  %13 = getelementptr inbounds i32, ptr %1, i64 %12
  %14 = tail call i32 @Kit_SopFactorTrivial_rec(ptr noundef %0, ptr noundef %13, i32 noundef %10, i32 noundef %3)
  %15 = tail call i32 @Kit_GraphAddNodeOr(ptr noundef %0, i32 %11, i32 %14) #8
  br label %common.ret20
}